target datalayout = "e-m:e-p270:32:32-p271:32:32-p272:64:64-i64:64-i128:128-f80:128-n8:16:32:64-S128"
target triple = "x86_64-pc-linux-gnu"

%struct.OSSL_TIME = type { i64 }
%struct.ssl_st = type { i32, ptr, ptr, ptr, %struct.CRYPTO_REF_COUNT, ptr, %struct.crypto_ex_data_st }
%struct.CRYPTO_REF_COUNT = type { i32 }
%struct.crypto_ex_data_st = type { ptr, ptr }
%struct.ssl_connection_st = type { %struct.ssl_st, ptr, i32, ptr, ptr, ptr, i32, ptr, i32, i32, i32, i32, %struct.OSSL_TIME, %struct.OSSL_TIME, %struct.ossl_statem_st, i32, ptr, ptr, i64, i64, i64, %struct.ossl_quic_tls_callbacks_st, ptr, ptr, %struct.anon, ptr, ptr, ptr, i32, ptr, %struct.ssl_dane_st, ptr, ptr, ptr, ptr, i32, [64 x i8], [64 x i8], [64 x i8], [64 x i8], [64 x i8], [64 x i8], [64 x i8], [64 x i8], [64 x i8], [64 x i8], [64 x i8], [64 x i8], ptr, [64 x i8], i64, i32, i64, [32 x i8], ptr, ptr, ptr, i64, ptr, [32 x i8], i64, i32, ptr, ptr, i32, i32, ptr, ptr, ptr, ptr, ptr, i64, ptr, ptr, i64, i32, i32, i32, i64, i32, i32, i64, i64, i64, %struct.anon.1, ptr, i32, ptr, ptr, ptr, i32, ptr, ptr, ptr, i32, i32, i32, i32, ptr, i64, i32, ptr, %struct.srp_ctx_st, ptr, %struct.record_layer_st, ptr, ptr, ptr, ptr, i64, i32, i32, i32, i64, i64, i64, ptr, ptr, ptr, ptr, ptr, i64, ptr, i64, ptr, i64 }
%struct.ossl_statem_st = type { i32, i32, i32, i32, i32, i32, i32, i32, i32, i32, i32, i32, i32, ptr, ptr, ptr, i8 }
%struct.ossl_quic_tls_callbacks_st = type { ptr, ptr, ptr, ptr, ptr, ptr }
%struct.anon = type { i64, [32 x i8], [32 x i8], ptr, ptr, i32, i32, i32, i32, [2 x i8], i32, i32, i32, i32, %struct.anon.0, [64 x i8], i64, [64 x i8], i64, i32, i32, ptr, i64, ptr, i64, i32, i8, i8, i16, ptr, i16 }
%struct.anon.0 = type { [128 x i8], i64, [128 x i8], i64, i64, i32, ptr, ptr, [4 x ptr], [4 x i16], i64, i32, ptr, i64, ptr, i64, ptr, ptr, ptr, i32, i64, ptr, i32, ptr, i64, ptr, i64, ptr, i64, ptr, ptr, ptr, ptr, i64, i64, ptr, ptr, i32, i32, i32, i32 }
%struct.ssl_dane_st = type { ptr, ptr, ptr, ptr, ptr, i32, i32, i32, i64 }
%struct.anon.1 = type { [29 x i8], ptr, ptr, ptr, i32, ptr, i16, i32, %struct.anon.2, i32, i32, i64, ptr, i64, ptr, i64, ptr, i64, ptr, i64, ptr, i64, ptr, ptr, ptr, ptr, ptr, ptr, ptr, i64, ptr, i64, i32, i32, i32, i32, ptr, i64, i32, i8, i32, [4 x i32], i32, i8, i8, i8, i8 }
%struct.anon.2 = type { ptr, ptr, ptr, i64 }
%struct.srp_ctx_st = type { ptr, ptr, ptr, ptr, ptr, ptr, ptr, ptr, ptr, ptr, ptr, ptr, ptr, ptr, i32, i64 }
%struct.record_layer_st = type { ptr, ptr, ptr, ptr, ptr, ptr, ptr, ptr, i64, i32, i64, [4 x i8], i64, i64, i8, ptr, i32, ptr, ptr, ptr, i64, i64, i64, i64, [32 x %struct.tls_record_st] }
%struct.tls_record_st = type { ptr, i32, i8, ptr, ptr, i64, i64, i16, [8 x i8] }
%struct.ssl_ctx_st = type { ptr, ptr, ptr, ptr, ptr, ptr, ptr, i64, ptr, ptr, i32, %struct.OSSL_TIME, ptr, ptr, ptr, %struct.anon.3, %struct.CRYPTO_REF_COUNT, ptr, ptr, ptr, ptr, ptr, ptr, ptr, ptr, ptr, %struct.crypto_ex_data_st, ptr, ptr, ptr, ptr, ptr, ptr, ptr, i64, i32, i32, i32, i64, ptr, ptr, i32, ptr, ptr, i32, i64, [32 x i8], ptr, ptr, ptr, i32, ptr, ptr, ptr, i64, i64, i64, i64, ptr, ptr, ptr, ptr, ptr, %struct.anon.4, ptr, ptr, ptr, ptr, %struct.srp_ctx_st, %struct.dane_ctx_st, ptr, ptr, ptr, ptr, i32, i32, ptr, ptr, i64, i64, ptr, ptr, ptr, i64, ptr, ptr, i32, ptr, ptr, ptr, [14 x i32], [24 x ptr], [14 x ptr], [14 x i64], i64, ptr, ptr, ptr, i64, i64, ptr, i64, i64, i32, i32, i32, i32, ptr, i64, ptr, i64, i64, ptr, ptr }
%struct.anon.3 = type { i32, i32, i32, i32, i32, i32, i32, i32, i32, i32, i32 }
%struct.anon.4 = type { ptr, ptr, [16 x i8], ptr, ptr, ptr, ptr, ptr, i32, i8, i64, ptr, i64, ptr, i64, ptr, i64, ptr, ptr, i64, ptr, ptr, ptr, i64, ptr, ptr, ptr, ptr, [32 x i8] }
%struct.dane_ctx_st = type { ptr, ptr, i8, i64 }
%struct.cert_st = type { ptr, ptr, ptr, i32, i32, ptr, i64, ptr, i64, ptr, i64, ptr, i64, ptr, ptr, ptr, ptr, %struct.custom_ext_methods, ptr, i32, ptr, ptr, %struct.CRYPTO_REF_COUNT }
%struct.custom_ext_methods = type { ptr, i64 }
%struct.ssl_cipher_st = type { i32, ptr, ptr, i32, i32, i32, i32, i32, i32, i32, i32, i32, i32, i32, i32, i32 }
%struct.cert_pkey_st = type { ptr, ptr, ptr, ptr, i64 }

@.str.15 = private unnamed_addr constant [3 x i8] c"DH\00", align 1
@.str.16 = private unnamed_addr constant [2 x i8] c"p\00", align 1
@.str.17 = private unnamed_addr constant [2 x i8] c"g\00", align 1

; Function Attrs: nounwind uwtable
define ptr @ssl_get_auto_dh(ptr noundef %0) #1 {
  %2 = alloca ptr, align 8
  %3 = alloca ptr, align 8
  %4 = alloca ptr, align 8
  %5 = alloca ptr, align 8
  %6 = alloca i32, align 4
  %7 = alloca i32, align 4
  %8 = alloca ptr, align 8
  %9 = alloca ptr, align 8
  %10 = alloca ptr, align 8
  %11 = alloca ptr, align 8
  %12 = alloca i32, align 4
  store ptr %0, ptr %3, align 8, !tbaa !25
  call void @llvm.lifetime.start.p0(i64 8, ptr %4) #8
  store ptr null, ptr %4, align 8, !tbaa !202
  call void @llvm.lifetime.start.p0(i64 8, ptr %5) #8
  call void @llvm.lifetime.start.p0(i64 4, ptr %6) #8
  store i32 80, ptr %6, align 4, !tbaa !128
  call void @llvm.lifetime.start.p0(i64 4, ptr %7) #8
  call void @llvm.lifetime.start.p0(i64 8, ptr %8) #8
  store ptr null, ptr %8, align 8, !tbaa !211
  call void @llvm.lifetime.start.p0(i64 8, ptr %9) #8
  store ptr null, ptr %9, align 8, !tbaa !357
  call void @llvm.lifetime.start.p0(i64 8, ptr %10) #8
  store ptr null, ptr %10, align 8, !tbaa !312
  call void @llvm.lifetime.start.p0(i64 8, ptr %11) #8
  %13 = load ptr, ptr %3, align 8, !tbaa !25
  %14 = getelementptr inbounds nuw %struct.ssl_connection_st, ptr %13, i32 0, i32 0
  %15 = getelementptr inbounds nuw %struct.ssl_st, ptr %14, i32 0, i32 1
  %16 = load ptr, ptr %15, align 8, !tbaa !137
  store ptr %16, ptr %11, align 8, !tbaa !80
  %17 = load ptr, ptr %3, align 8, !tbaa !25
  %18 = getelementptr inbounds nuw %struct.ssl_connection_st, ptr %17, i32 0, i32 48
  %19 = load ptr, ptr %18, align 8, !tbaa !138
  %20 = getelementptr inbounds nuw %struct.cert_st, ptr %19, i32 0, i32 3
  %21 = load i32, ptr %20, align 8, !tbaa !359
  %22 = icmp ne i32 %21, 2
  br i1 %22, label %23, label %63

23:                                               ; preds = %1
  %24 = load ptr, ptr %3, align 8, !tbaa !25
  %25 = getelementptr inbounds nuw %struct.ssl_connection_st, ptr %24, i32 0, i32 24
  %26 = getelementptr inbounds nuw %struct.anon, ptr %25, i32 0, i32 14
  %27 = getelementptr inbounds nuw %struct.anon.0, ptr %26, i32 0, i32 6
  %28 = load ptr, ptr %27, align 8, !tbaa !174
  %29 = getelementptr inbounds nuw %struct.ssl_cipher_st, ptr %28, i32 0, i32 5
  %30 = load i32, ptr %29, align 8, !tbaa !232
  %31 = and i32 %30, 20
  %32 = icmp ne i32 %31, 0
  br i1 %32, label %33, label %45

33:                                               ; preds = %23
  %34 = load ptr, ptr %3, align 8, !tbaa !25
  %35 = getelementptr inbounds nuw %struct.ssl_connection_st, ptr %34, i32 0, i32 24
  %36 = getelementptr inbounds nuw %struct.anon, ptr %35, i32 0, i32 14
  %37 = getelementptr inbounds nuw %struct.anon.0, ptr %36, i32 0, i32 6
  %38 = load ptr, ptr %37, align 8, !tbaa !174
  %39 = getelementptr inbounds nuw %struct.ssl_cipher_st, ptr %38, i32 0, i32 14
  %40 = load i32, ptr %39, align 4, !tbaa !266
  %41 = icmp eq i32 %40, 256
  br i1 %41, label %42, label %43

42:                                               ; preds = %33
  store i32 128, ptr %6, align 4, !tbaa !128
  br label %44

43:                                               ; preds = %33
  store i32 80, ptr %6, align 4, !tbaa !128
  br label %44

44:                                               ; preds = %43, %42
  br label %62

45:                                               ; preds = %23
  %46 = load ptr, ptr %3, align 8, !tbaa !25
  %47 = getelementptr inbounds nuw %struct.ssl_connection_st, ptr %46, i32 0, i32 24
  %48 = getelementptr inbounds nuw %struct.anon, ptr %47, i32 0, i32 14
  %49 = getelementptr inbounds nuw %struct.anon.0, ptr %48, i32 0, i32 30
  %50 = load ptr, ptr %49, align 8, !tbaa !360
  %51 = icmp eq ptr %50, null
  br i1 %51, label %52, label %53

52:                                               ; preds = %45
  store ptr null, ptr %2, align 8
  store i32 1, ptr %12, align 4
  br label %148

53:                                               ; preds = %45
  %54 = load ptr, ptr %3, align 8, !tbaa !25
  %55 = getelementptr inbounds nuw %struct.ssl_connection_st, ptr %54, i32 0, i32 24
  %56 = getelementptr inbounds nuw %struct.anon, ptr %55, i32 0, i32 14
  %57 = getelementptr inbounds nuw %struct.anon.0, ptr %56, i32 0, i32 30
  %58 = load ptr, ptr %57, align 8, !tbaa !360
  %59 = getelementptr inbounds nuw %struct.cert_pkey_st, ptr %58, i32 0, i32 1
  %60 = load ptr, ptr %59, align 8, !tbaa !235
  %61 = call i32 @EVP_PKEY_get_security_bits(ptr noundef %60)
  store i32 %61, ptr %6, align 4, !tbaa !128
  br label %62

62:                                               ; preds = %53, %44
  br label %63

63:                                               ; preds = %62, %1
  %64 = load ptr, ptr %3, align 8, !tbaa !25
  %65 = getelementptr inbounds nuw %struct.ssl_connection_st, ptr %64, i32 0, i32 0
  %66 = call i32 @ssl_get_security_level_bits(ptr noundef %65, ptr noundef null, ptr noundef null)
  store i32 %66, ptr %7, align 4, !tbaa !128
  %67 = load i32, ptr %6, align 4, !tbaa !128
  %68 = load i32, ptr %7, align 4, !tbaa !128
  %69 = icmp slt i32 %67, %68
  br i1 %69, label %70, label %72

70:                                               ; preds = %63
  %71 = load i32, ptr %7, align 4, !tbaa !128
  store i32 %71, ptr %6, align 4, !tbaa !128
  br label %72

72:                                               ; preds = %70, %63
  %73 = load i32, ptr %6, align 4, !tbaa !128
  %74 = icmp sge i32 %73, 192
  br i1 %74, label %75, label %77

75:                                               ; preds = %72
  %76 = call ptr @BN_get_rfc3526_prime_8192(ptr noundef null)
  store ptr %76, ptr %5, align 8, !tbaa !361
  br label %97

77:                                               ; preds = %72
  %78 = load i32, ptr %6, align 4, !tbaa !128
  %79 = icmp sge i32 %78, 152
  br i1 %79, label %80, label %82

80:                                               ; preds = %77
  %81 = call ptr @BN_get_rfc3526_prime_4096(ptr noundef null)
  store ptr %81, ptr %5, align 8, !tbaa !361
  br label %96

82:                                               ; preds = %77
  %83 = load i32, ptr %6, align 4, !tbaa !128
  %84 = icmp sge i32 %83, 128
  br i1 %84, label %85, label %87

85:                                               ; preds = %82
  %86 = call ptr @BN_get_rfc3526_prime_3072(ptr noundef null)
  store ptr %86, ptr %5, align 8, !tbaa !361
  br label %95

87:                                               ; preds = %82
  %88 = load i32, ptr %6, align 4, !tbaa !128
  %89 = icmp sge i32 %88, 112
  br i1 %89, label %90, label %92

90:                                               ; preds = %87
  %91 = call ptr @BN_get_rfc3526_prime_2048(ptr noundef null)
  store ptr %91, ptr %5, align 8, !tbaa !361
  br label %94

92:                                               ; preds = %87
  %93 = call ptr @BN_get_rfc2409_prime_1024(ptr noundef null)
  store ptr %93, ptr %5, align 8, !tbaa !361
  br label %94

94:                                               ; preds = %92, %90
  br label %95

95:                                               ; preds = %94, %85
  br label %96

96:                                               ; preds = %95, %80
  br label %97

97:                                               ; preds = %96, %75
  %98 = load ptr, ptr %5, align 8, !tbaa !361
  %99 = icmp eq ptr %98, null
  br i1 %99, label %100, label %101

100:                                              ; preds = %97
  br label %142

101:                                              ; preds = %97
  %102 = load ptr, ptr %11, align 8, !tbaa !80
  %103 = getelementptr inbounds nuw %struct.ssl_ctx_st, ptr %102, i32 0, i32 0
  %104 = load ptr, ptr %103, align 8, !tbaa !81
  %105 = load ptr, ptr %11, align 8, !tbaa !80
  %106 = getelementptr inbounds nuw %struct.ssl_ctx_st, ptr %105, i32 0, i32 89
  %107 = load ptr, ptr %106, align 8, !tbaa !210
  %108 = call ptr @EVP_PKEY_CTX_new_from_name(ptr noundef %104, ptr noundef @.str.15, ptr noundef %107)
  store ptr %108, ptr %8, align 8, !tbaa !211
  %109 = load ptr, ptr %8, align 8, !tbaa !211
  %110 = icmp eq ptr %109, null
  br i1 %110, label %115, label %111

111:                                              ; preds = %101
  %112 = load ptr, ptr %8, align 8, !tbaa !211
  %113 = call i32 @EVP_PKEY_fromdata_init(ptr noundef %112)
  %114 = icmp ne i32 %113, 1
  br i1 %114, label %115, label %116

115:                                              ; preds = %111, %101
  br label %142

116:                                              ; preds = %111
  %117 = call ptr @OSSL_PARAM_BLD_new()
  store ptr %117, ptr %9, align 8, !tbaa !357
  %118 = load ptr, ptr %9, align 8, !tbaa !357
  %119 = icmp eq ptr %118, null
  br i1 %119, label %129, label %120

120:                                              ; preds = %116
  %121 = load ptr, ptr %9, align 8, !tbaa !357
  %122 = load ptr, ptr %5, align 8, !tbaa !361
  %123 = call i32 @OSSL_PARAM_BLD_push_BN(ptr noundef %121, ptr noundef @.str.16, ptr noundef %122)
  %124 = icmp ne i32 %123, 0
  br i1 %124, label %125, label %129

125:                                              ; preds = %120
  %126 = load ptr, ptr %9, align 8, !tbaa !357
  %127 = call i32 @OSSL_PARAM_BLD_push_uint(ptr noundef %126, ptr noundef @.str.17, i32 noundef 2)
  %128 = icmp ne i32 %127, 0
  br i1 %128, label %130, label %129

129:                                              ; preds = %125, %120, %116
  br label %142

130:                                              ; preds = %125
  %131 = load ptr, ptr %9, align 8, !tbaa !357
  %132 = call ptr @OSSL_PARAM_BLD_to_param(ptr noundef %131)
  store ptr %132, ptr %10, align 8, !tbaa !312
  %133 = load ptr, ptr %10, align 8, !tbaa !312
  %134 = icmp eq ptr %133, null
  br i1 %134, label %140, label %135

135:                                              ; preds = %130
  %136 = load ptr, ptr %8, align 8, !tbaa !211
  %137 = load ptr, ptr %10, align 8, !tbaa !312
  %138 = call i32 @EVP_PKEY_fromdata(ptr noundef %136, ptr noundef %4, i32 noundef 132, ptr noundef %137)
  %139 = icmp ne i32 %138, 1
  br i1 %139, label %140, label %141

140:                                              ; preds = %135, %130
  br label %142

141:                                              ; preds = %135
  br label %142

142:                                              ; preds = %141, %140, %129, %115, %100
  %143 = load ptr, ptr %10, align 8, !tbaa !312
  call void @OSSL_PARAM_free(ptr noundef %143)
  %144 = load ptr, ptr %9, align 8, !tbaa !357
  call void @OSSL_PARAM_BLD_free(ptr noundef %144)
  %145 = load ptr, ptr %8, align 8, !tbaa !211
  call void @EVP_PKEY_CTX_free(ptr noundef %145)
  %146 = load ptr, ptr %5, align 8, !tbaa !361
  call void @BN_free(ptr noundef %146)
  %147 = load ptr, ptr %4, align 8, !tbaa !202
  store ptr %147, ptr %2, align 8
  store i32 1, ptr %12, align 4
  br label %148

148:                                              ; preds = %142, %52
  call void @llvm.lifetime.end.p0(i64 8, ptr %11) #8
  call void @llvm.lifetime.end.p0(i64 8, ptr %10) #8
  call void @llvm.lifetime.end.p0(i64 8, ptr %9) #8
  call void @llvm.lifetime.end.p0(i64 8, ptr %8) #8
  call void @llvm.lifetime.end.p0(i64 4, ptr %7) #8
  call void @llvm.lifetime.end.p0(i64 4, ptr %6) #8
  call void @llvm.lifetime.end.p0(i64 8, ptr %5) #8
  call void @llvm.lifetime.end.p0(i64 8, ptr %4) #8
  %149 = load ptr, ptr %2, align 8
  ret ptr %149
}