; Function Attrs: nounwind uwtable
define ptr @ssl_get_auto_dh(ptr noundef %0) local_unnamed_addr #2 {
  %2 = alloca ptr, align 8
  call void @llvm.lifetime.start.p0(i64 8, ptr nonnull %2) #14
  store ptr null, ptr %2, align 8, !tbaa !299
  %3 = getelementptr inbounds nuw i8, ptr %0, i64 8
  %4 = load ptr, ptr %3, align 8, !tbaa !126
  %5 = getelementptr inbounds nuw i8, ptr %0, i64 2176
  %6 = load ptr, ptr %5, align 8, !tbaa !127
  %7 = getelementptr inbounds nuw i8, ptr %6, i64 24
  %8 = load i32, ptr %7, align 8, !tbaa !300
  %.not = icmp eq i32 %8, 2
  br i1 %.not, label %27, label %9

9:                                                ; preds = %1
  %10 = getelementptr inbounds nuw i8, ptr %0, i64 768
  %11 = load ptr, ptr %10, align 8, !tbaa !152
  %12 = getelementptr inbounds nuw i8, ptr %11, i64 32
  %13 = load i32, ptr %12, align 8, !tbaa !198
  %14 = and i32 %13, 20
  %.not44 = icmp eq i32 %14, 0
  br i1 %.not44, label %19, label %15

15:                                               ; preds = %9
  %16 = getelementptr inbounds nuw i8, ptr %11, i64 68
  %17 = load i32, ptr %16, align 4, !tbaa !228
  %18 = icmp eq i32 %17, 256
  %. = select i1 %18, i32 128, i32 80
  br label %27

19:                                               ; preds = %9
  %20 = getelementptr inbounds nuw i8, ptr %0, i64 984
  %21 = load ptr, ptr %20, align 8, !tbaa !301
  %22 = icmp eq ptr %21, null
  br i1 %22, label %70, label %23

23:                                               ; preds = %19
  %24 = getelementptr inbounds nuw i8, ptr %21, i64 8
  %25 = load ptr, ptr %24, align 8, !tbaa !201
  %26 = tail call i32 @EVP_PKEY_get_security_bits(ptr noundef %25) #14
  br label %27

27:                                               ; preds = %15, %23, %1
  %.035 = phi i32 [ %26, %23 ], [ 80, %1 ], [ %., %15 ]
  %28 = tail call i32 @ssl_get_security_level_bits(ptr noundef nonnull %0, ptr noundef null, ptr noundef null) #14
  %spec.select = tail call i32 @llvm.smax.i32(i32 %.035, i32 %28)
  %29 = icmp sgt i32 %spec.select, 191
  br i1 %29, label %30, label %32

30:                                               ; preds = %27
  %31 = tail call ptr @BN_get_rfc3526_prime_8192(ptr noundef null) #14
  br label %46

32:                                               ; preds = %27
  %33 = icmp sgt i32 %spec.select, 151
  br i1 %33, label %34, label %36

34:                                               ; preds = %32
  %35 = tail call ptr @BN_get_rfc3526_prime_4096(ptr noundef null) #14
  br label %46

36:                                               ; preds = %32
  %37 = icmp sgt i32 %spec.select, 127
  br i1 %37, label %38, label %40

38:                                               ; preds = %36
  %39 = tail call ptr @BN_get_rfc3526_prime_3072(ptr noundef null) #14
  br label %46

40:                                               ; preds = %36
  %41 = icmp sgt i32 %spec.select, 111
  br i1 %41, label %42, label %44

42:                                               ; preds = %40
  %43 = tail call ptr @BN_get_rfc3526_prime_2048(ptr noundef null) #14
  br label %46

44:                                               ; preds = %40
  %45 = tail call ptr @BN_get_rfc2409_prime_1024(ptr noundef null) #14
  br label %46

46:                                               ; preds = %34, %42, %44, %38, %30
  %.034 = phi ptr [ %31, %30 ], [ %35, %34 ], [ %39, %38 ], [ %43, %42 ], [ %45, %44 ]
  %47 = icmp eq ptr %.034, null
  br i1 %47, label %68, label %48

48:                                               ; preds = %46
  %49 = load ptr, ptr %4, align 8, !tbaa !76
  %50 = getelementptr inbounds nuw i8, ptr %4, i64 1152
  %51 = load ptr, ptr %50, align 8, !tbaa !184
  %52 = tail call ptr @EVP_PKEY_CTX_new_from_name(ptr noundef %49, ptr noundef nonnull @.str.15, ptr noundef %51) #14
  %53 = icmp eq ptr %52, null
  br i1 %53, label %68, label %54

54:                                               ; preds = %48
  %55 = tail call i32 @EVP_PKEY_fromdata_init(ptr noundef nonnull %52) #14
  %.not45 = icmp eq i32 %55, 1
  br i1 %.not45, label %56, label %68

56:                                               ; preds = %54
  %57 = tail call ptr @OSSL_PARAM_BLD_new() #14
  %58 = icmp eq ptr %57, null
  br i1 %58, label %68, label %59

59:                                               ; preds = %56
  %60 = tail call i32 @OSSL_PARAM_BLD_push_BN(ptr noundef nonnull %57, ptr noundef nonnull @.str.16, ptr noundef nonnull %.034) #14
  %.not46 = icmp eq i32 %60, 0
  br i1 %.not46, label %68, label %61

61:                                               ; preds = %59
  %62 = tail call i32 @OSSL_PARAM_BLD_push_uint(ptr noundef nonnull %57, ptr noundef nonnull @.str.17, i32 noundef 2) #14
  %.not47 = icmp eq i32 %62, 0
  br i1 %.not47, label %68, label %63

63:                                               ; preds = %61
  %64 = tail call ptr @OSSL_PARAM_BLD_to_param(ptr noundef nonnull %57) #14
  %65 = icmp eq ptr %64, null
  br i1 %65, label %68, label %66

66:                                               ; preds = %63
  %67 = call i32 @EVP_PKEY_fromdata(ptr noundef nonnull %52, ptr noundef nonnull %2, i32 noundef 132, ptr noundef nonnull %64) #14
  br label %68

68:                                               ; preds = %66, %63, %56, %59, %61, %48, %54, %46
  %.033 = phi ptr [ null, %46 ], [ null, %48 ], [ %52, %54 ], [ %52, %56 ], [ %52, %63 ], [ %52, %66 ], [ %52, %61 ], [ %52, %59 ]
  %.032 = phi ptr [ null, %46 ], [ null, %48 ], [ null, %54 ], [ null, %56 ], [ %57, %63 ], [ %57, %66 ], [ %57, %61 ], [ %57, %59 ]
  %.031 = phi ptr [ null, %46 ], [ null, %48 ], [ null, %54 ], [ null, %56 ], [ null, %63 ], [ %64, %66 ], [ null, %61 ], [ null, %59 ]
  call void @OSSL_PARAM_free(ptr noundef %.031) #14
  call void @OSSL_PARAM_BLD_free(ptr noundef %.032) #14
  call void @EVP_PKEY_CTX_free(ptr noundef %.033) #14
  call void @BN_free(ptr noundef %.034) #14
  %69 = load ptr, ptr %2, align 8, !tbaa !299
  br label %70

70:                                               ; preds = %19, %68
  %.0 = phi ptr [ %69, %68 ], [ null, %19 ]
  call void @llvm.lifetime.end.p0(i64 8, ptr nonnull %2) #14
  ret ptr %.0
}